; Function Attrs: mustprogress nofree norecurse nosync nounwind willreturn memory(read, inaccessiblemem: none) uwtable
define hidden noundef double @_ZNK15fieldDescriptor20double_initial_valueEv(ptr nocapture noundef nonnull readonly align 8 dereferenceable(48) %0) local_unnamed_addr #0 align 2 {
  %2 = getelementptr inbounds i8, ptr %0, i64 32
  %3 = load ptr, ptr %2, align 8
  %.sroa.1.0..sroa_idx.i = getelementptr inbounds i8, ptr %0, i64 20
  %.sroa.1.0.copyload.i = load i16, ptr %.sroa.1.0..sroa_idx.i, align 4
  %4 = getelementptr inbounds i8, ptr %3, i64 72
  %5 = zext i16 %.sroa.1.0.copyload.i to i64
  %6 = getelementptr inbounds i64, ptr %4, i64 %5
  %.0.i.i2.i = load double, ptr %6, align 1
  ret double %.0.i.i2.i
}